target datalayout = "e-m:e-p270:32:32-p271:32:32-p272:64:64-i64:64-i128:128-f80:128-n8:16:32:64-S128"
target triple = "x86_64-pc-linux-gnu"

; Function Attrs: alwaysinline nounwind willreturn memory(none) uwtable
define internal zeroext i8 @av_clip_uint8_c(i32 noundef %0) #7 {
  %2 = alloca i8, align 1
  %3 = alloca i32, align 4
  store i32 %0, ptr %3, align 4, !tbaa !55
  %4 = load i32, ptr %3, align 4, !tbaa !55
  %5 = and i32 %4, -256
  %6 = icmp ne i32 %5, 0
  br i1 %6, label %7, label %12

7:                                                ; preds = %1
  %8 = load i32, ptr %3, align 4, !tbaa !55
  %9 = xor i32 %8, -1
  %10 = ashr i32 %9, 31
  %11 = trunc i32 %10 to i8
  store i8 %11, ptr %2, align 1
  br label %15

12:                                               ; preds = %1
  %13 = load i32, ptr %3, align 4, !tbaa !55
  %14 = trunc i32 %13 to i8
  store i8 %14, ptr %2, align 1
  br label %15

15:                                               ; preds = %12, %7
  %16 = load i8, ptr %2, align 1
  ret i8 %16
}

; Function Attrs: nounwind uwtable
define internal void @inv_predict_12(ptr noundef %0, ptr noundef %1, ptr noundef %2, ptr noundef %3, ptr noundef %4) #1 {
  %6 = alloca ptr, align 8
  %7 = alloca ptr, align 8
  %8 = alloca ptr, align 8
  %9 = alloca ptr, align 8
  %10 = alloca ptr, align 8
  store ptr %0, ptr %6, align 8, !tbaa !82
  store ptr %1, ptr %7, align 8, !tbaa !82
  store ptr %2, ptr %8, align 8, !tbaa !82
  store ptr %3, ptr %9, align 8, !tbaa !82
  store ptr %4, ptr %10, align 8, !tbaa !82
  %11 = load ptr, ptr %7, align 8, !tbaa !82
  %12 = getelementptr inbounds i8, ptr %11, i64 0
  %13 = load i8, ptr %12, align 1, !tbaa !76
  %14 = zext i8 %13 to i32
  %15 = load ptr, ptr %9, align 8, !tbaa !82
  %16 = getelementptr inbounds i8, ptr %15, i64 0
  %17 = load i8, ptr %16, align 1, !tbaa !76
  %18 = zext i8 %17 to i32
  %19 = add nsw i32 %14, %18
  %20 = load ptr, ptr %8, align 8, !tbaa !82
  %21 = getelementptr inbounds i8, ptr %20, i64 0
  %22 = load i8, ptr %21, align 1, !tbaa !76
  %23 = zext i8 %22 to i32
  %24 = sub nsw i32 %19, %23
  %25 = call zeroext i8 @av_clip_uint8_c(i32 noundef %24) #13
  %26 = load ptr, ptr %6, align 8, !tbaa !82
  %27 = getelementptr inbounds i8, ptr %26, i64 0
  store i8 %25, ptr %27, align 1, !tbaa !76
  %28 = load ptr, ptr %7, align 8, !tbaa !82
  %29 = getelementptr inbounds i8, ptr %28, i64 1
  %30 = load i8, ptr %29, align 1, !tbaa !76
  %31 = zext i8 %30 to i32
  %32 = load ptr, ptr %9, align 8, !tbaa !82
  %33 = getelementptr inbounds i8, ptr %32, i64 1
  %34 = load i8, ptr %33, align 1, !tbaa !76
  %35 = zext i8 %34 to i32
  %36 = add nsw i32 %31, %35
  %37 = load ptr, ptr %8, align 8, !tbaa !82
  %38 = getelementptr inbounds i8, ptr %37, i64 1
  %39 = load i8, ptr %38, align 1, !tbaa !76
  %40 = zext i8 %39 to i32
  %41 = sub nsw i32 %36, %40
  %42 = call zeroext i8 @av_clip_uint8_c(i32 noundef %41) #13
  %43 = load ptr, ptr %6, align 8, !tbaa !82
  %44 = getelementptr inbounds i8, ptr %43, i64 1
  store i8 %42, ptr %44, align 1, !tbaa !76
  %45 = load ptr, ptr %7, align 8, !tbaa !82
  %46 = getelementptr inbounds i8, ptr %45, i64 2
  %47 = load i8, ptr %46, align 1, !tbaa !76
  %48 = zext i8 %47 to i32
  %49 = load ptr, ptr %9, align 8, !tbaa !82
  %50 = getelementptr inbounds i8, ptr %49, i64 2
  %51 = load i8, ptr %50, align 1, !tbaa !76
  %52 = zext i8 %51 to i32
  %53 = add nsw i32 %48, %52
  %54 = load ptr, ptr %8, align 8, !tbaa !82
  %55 = getelementptr inbounds i8, ptr %54, i64 2
  %56 = load i8, ptr %55, align 1, !tbaa !76
  %57 = zext i8 %56 to i32
  %58 = sub nsw i32 %53, %57
  %59 = call zeroext i8 @av_clip_uint8_c(i32 noundef %58) #13
  %60 = load ptr, ptr %6, align 8, !tbaa !82
  %61 = getelementptr inbounds i8, ptr %60, i64 2
  store i8 %59, ptr %61, align 1, !tbaa !76
  %62 = load ptr, ptr %7, align 8, !tbaa !82
  %63 = getelementptr inbounds i8, ptr %62, i64 3
  %64 = load i8, ptr %63, align 1, !tbaa !76
  %65 = zext i8 %64 to i32
  %66 = load ptr, ptr %9, align 8, !tbaa !82
  %67 = getelementptr inbounds i8, ptr %66, i64 3
  %68 = load i8, ptr %67, align 1, !tbaa !76
  %69 = zext i8 %68 to i32
  %70 = add nsw i32 %65, %69
  %71 = load ptr, ptr %8, align 8, !tbaa !82
  %72 = getelementptr inbounds i8, ptr %71, i64 3
  %73 = load i8, ptr %72, align 1, !tbaa !76
  %74 = zext i8 %73 to i32
  %75 = sub nsw i32 %70, %74
  %76 = call zeroext i8 @av_clip_uint8_c(i32 noundef %75) #13
  %77 = load ptr, ptr %6, align 8, !tbaa !82
  %78 = getelementptr inbounds i8, ptr %77, i64 3
  store i8 %76, ptr %78, align 1, !tbaa !76
  ret void
}