; Function Attrs: mustprogress nofree norecurse nosync nounwind willreturn memory(argmem: readwrite) uwtable
define internal void @inv_predict_12(ptr noundef writeonly captures(none) initializes((0, 4)) %0, ptr noundef readonly captures(none) %1, ptr noundef readonly captures(none) %2, ptr noundef readonly captures(none) %3, ptr readnone captures(none) %4) #7 {
  %6 = load i8, ptr %1, align 1, !tbaa !59
  %7 = zext i8 %6 to i32
  %8 = load i8, ptr %3, align 1, !tbaa !59
  %9 = zext i8 %8 to i32
  %10 = add nuw nsw i32 %9, %7
  %11 = load i8, ptr %2, align 1, !tbaa !59
  %12 = zext i8 %11 to i32
  %13 = sub nsw i32 %10, %12
  %.not.i22 = icmp ult i32 %13, 256
  %isnotneg.i23 = icmp sgt i32 %13, -1
  %14 = sext i1 %isnotneg.i23 to i8
  %15 = trunc nuw i32 %13 to i8
  %.0.i24 = select i1 %.not.i22, i8 %15, i8 %14
  store i8 %.0.i24, ptr %0, align 1, !tbaa !59
  %16 = getelementptr inbounds nuw i8, ptr %1, i64 1
  %17 = load i8, ptr %16, align 1, !tbaa !59
  %18 = zext i8 %17 to i32
  %19 = getelementptr inbounds nuw i8, ptr %3, i64 1
  %20 = load i8, ptr %19, align 1, !tbaa !59
  %21 = zext i8 %20 to i32
  %22 = add nuw nsw i32 %21, %18
  %23 = getelementptr inbounds nuw i8, ptr %2, i64 1
  %24 = load i8, ptr %23, align 1, !tbaa !59
  %25 = zext i8 %24 to i32
  %26 = sub nsw i32 %22, %25
  %.not.i19 = icmp ult i32 %26, 256
  %isnotneg.i20 = icmp sgt i32 %26, -1
  %27 = sext i1 %isnotneg.i20 to i8
  %28 = trunc nuw i32 %26 to i8
  %.0.i21 = select i1 %.not.i19, i8 %28, i8 %27
  %29 = getelementptr inbounds nuw i8, ptr %0, i64 1
  store i8 %.0.i21, ptr %29, align 1, !tbaa !59
  %30 = getelementptr inbounds nuw i8, ptr %1, i64 2
  %31 = load i8, ptr %30, align 1, !tbaa !59
  %32 = zext i8 %31 to i32
  %33 = getelementptr inbounds nuw i8, ptr %3, i64 2
  %34 = load i8, ptr %33, align 1, !tbaa !59
  %35 = zext i8 %34 to i32
  %36 = add nuw nsw i32 %35, %32
  %37 = getelementptr inbounds nuw i8, ptr %2, i64 2
  %38 = load i8, ptr %37, align 1, !tbaa !59
  %39 = zext i8 %38 to i32
  %40 = sub nsw i32 %36, %39
  %.not.i16 = icmp ult i32 %40, 256
  %isnotneg.i17 = icmp sgt i32 %40, -1
  %41 = sext i1 %isnotneg.i17 to i8
  %42 = trunc nuw i32 %40 to i8
  %.0.i18 = select i1 %.not.i16, i8 %42, i8 %41
  %43 = getelementptr inbounds nuw i8, ptr %0, i64 2
  store i8 %.0.i18, ptr %43, align 1, !tbaa !59
  %44 = getelementptr inbounds nuw i8, ptr %1, i64 3
  %45 = load i8, ptr %44, align 1, !tbaa !59
  %46 = zext i8 %45 to i32
  %47 = getelementptr inbounds nuw i8, ptr %3, i64 3
  %48 = load i8, ptr %47, align 1, !tbaa !59
  %49 = zext i8 %48 to i32
  %50 = add nuw nsw i32 %49, %46
  %51 = getelementptr inbounds nuw i8, ptr %2, i64 3
  %52 = load i8, ptr %51, align 1, !tbaa !59
  %53 = zext i8 %52 to i32
  %54 = sub nsw i32 %50, %53
  %.not.i = icmp ult i32 %54, 256
  %isnotneg.i = icmp sgt i32 %54, -1
  %55 = sext i1 %isnotneg.i to i8
  %56 = trunc nuw i32 %54 to i8
  %.0.i = select i1 %.not.i, i8 %56, i8 %55
  %57 = getelementptr inbounds nuw i8, ptr %0, i64 3
  store i8 %.0.i, ptr %57, align 1, !tbaa !59
  ret void
}